; ModuleID = '57/1484.c'
source_filename = "57/1484.c"
target datalayout = "e-m:e-p270:32:32-p271:32:32-p272:64:64-i64:64-f80:128-n8:16:32:64-S128"
target triple = "x86_64-pc-linux-gnu"

@.str = private unnamed_addr constant [4 x i8] c"%d\0A\00", align 1
@.str.1 = private unnamed_addr constant [3 x i8] c"%c\00", align 1
@.str.2 = private unnamed_addr constant [2 x i8] c"\0A\00", align 1

; Function Attrs: noinline nounwind uwtable
define dso_local i32 @main() #0 {
  %1 = alloca i32, align 4
  %2 = alloca i32, align 4
  %3 = alloca i32, align 4
  %4 = alloca i32, align 4
  %5 = alloca i32, align 4
  %6 = alloca [20 x i8], align 16
  store i32 0, i32* %1, align 4
  %7 = call i32 (i8*, ...) @__isoc99_scanf(i8* getelementptr inbounds ([4 x i8], [4 x i8]* @.str, i64 0, i64 0), i32* %2)
  store i32 0, i32* %3, align 4
  br label %8

8:                                                ; preds = %231, %0
  %9 = load i32, i32* %3, align 4
  %10 = load i32, i32* %2, align 4
  %11 = icmp slt i32 %9, %10
  br i1 %11, label %12, label %234

12:                                               ; preds = %8
  store i32 0, i32* %4, align 4
  br label %13

13:                                               ; preds = %26, %12
  %14 = load i32, i32* %4, align 4
  %15 = sext i32 %14 to i64
  %16 = getelementptr inbounds [20 x i8], [20 x i8]* %6, i64 0, i64 %15
  %17 = call i32 (i8*, ...) @__isoc99_scanf(i8* getelementptr inbounds ([3 x i8], [3 x i8]* @.str.1, i64 0, i64 0), i8* %16)
  %18 = load i32, i32* %4, align 4
  %19 = sext i32 %18 to i64
  %20 = getelementptr inbounds [20 x i8], [20 x i8]* %6, i64 0, i64 %19
  %21 = load i8, i8* %20, align 1
  %22 = sext i8 %21 to i32
  %23 = icmp eq i32 %22, 10
  br i1 %23, label %24, label %25

24:                                               ; preds = %13
  br label %29

25:                                               ; preds = %13
  br label %26

26:                                               ; preds = %25
  %27 = load i32, i32* %4, align 4
  %28 = add nsw i32 %27, 1
  store i32 %28, i32* %4, align 4
  br label %13

29:                                               ; preds = %24
  %30 = load i32, i32* %4, align 4
  %31 = sub nsw i32 %30, 1
  %32 = sext i32 %31 to i64
  %33 = getelementptr inbounds [20 x i8], [20 x i8]* %6, i64 0, i64 %32
  %34 = load i8, i8* %33, align 1
  %35 = sext i8 %34 to i32
  %36 = icmp eq i32 %35, 114
  br i1 %36, label %37, label %81

37:                                               ; preds = %29
  %38 = load i32, i32* %4, align 4
  %39 = sub nsw i32 %38, 2
  %40 = sext i32 %39 to i64
  %41 = getelementptr inbounds [20 x i8], [20 x i8]* %6, i64 0, i64 %40
  %42 = load i8, i8* %41, align 1
  %43 = sext i8 %42 to i32
  %44 = icmp eq i32 %43, 101
  br i1 %44, label %45, label %63

45:                                               ; preds = %37
  store i32 0, i32* %5, align 4
  br label %46

46:                                               ; preds = %58, %45
  %47 = load i32, i32* %5, align 4
  %48 = load i32, i32* %4, align 4
  %49 = sub nsw i32 %48, 2
  %50 = icmp slt i32 %47, %49
  br i1 %50, label %51, label %61

51:                                               ; preds = %46
  %52 = load i32, i32* %5, align 4
  %53 = sext i32 %52 to i64
  %54 = getelementptr inbounds [20 x i8], [20 x i8]* %6, i64 0, i64 %53
  %55 = load i8, i8* %54, align 1
  %56 = sext i8 %55 to i32
  %57 = call i32 (i8*, ...) @printf(i8* getelementptr inbounds ([3 x i8], [3 x i8]* @.str.1, i64 0, i64 0), i32 %56)
  br label %58

58:                                               ; preds = %51
  %59 = load i32, i32* %5, align 4
  %60 = add nsw i32 %59, 1
  store i32 %60, i32* %5, align 4
  br label %46

61:                                               ; preds = %46
  %62 = call i32 (i8*, ...) @printf(i8* getelementptr inbounds ([2 x i8], [2 x i8]* @.str.2, i64 0, i64 0))
  br label %80

63:                                               ; preds = %37
  store i32 0, i32* %5, align 4
  br label %64

64:                                               ; preds = %75, %63
  %65 = load i32, i32* %5, align 4
  %66 = load i32, i32* %4, align 4
  %67 = icmp slt i32 %65, %66
  br i1 %67, label %68, label %78

68:                                               ; preds = %64
  %69 = load i32, i32* %5, align 4
  %70 = sext i32 %69 to i64
  %71 = getelementptr inbounds [20 x i8], [20 x i8]* %6, i64 0, i64 %70
  %72 = load i8, i8* %71, align 1
  %73 = sext i8 %72 to i32
  %74 = call i32 (i8*, ...) @printf(i8* getelementptr inbounds ([3 x i8], [3 x i8]* @.str.1, i64 0, i64 0), i32 %73)
  br label %75

75:                                               ; preds = %68
  %76 = load i32, i32* %5, align 4
  %77 = add nsw i32 %76, 1
  store i32 %77, i32* %5, align 4
  br label %64

78:                                               ; preds = %64
  %79 = call i32 (i8*, ...) @printf(i8* getelementptr inbounds ([2 x i8], [2 x i8]* @.str.2, i64 0, i64 0))
  br label %80

80:                                               ; preds = %78, %61
  br label %230

81:                                               ; preds = %29
  %82 = load i32, i32* %4, align 4
  %83 = sub nsw i32 %82, 1
  %84 = sext i32 %83 to i64
  %85 = getelementptr inbounds [20 x i8], [20 x i8]* %6, i64 0, i64 %84
  %86 = load i8, i8* %85, align 1
  %87 = sext i8 %86 to i32
  %88 = icmp eq i32 %87, 121
  br i1 %88, label %89, label %133

89:                                               ; preds = %81
  %90 = load i32, i32* %4, align 4
  %91 = sub nsw i32 %90, 2
  %92 = sext i32 %91 to i64
  %93 = getelementptr inbounds [20 x i8], [20 x i8]* %6, i64 0, i64 %92
  %94 = load i8, i8* %93, align 1
  %95 = sext i8 %94 to i32
  %96 = icmp eq i32 %95, 108
  br i1 %96, label %97, label %115

97:                                               ; preds = %89
  store i32 0, i32* %5, align 4
  br label %98

98:                                               ; preds = %110, %97
  %99 = load i32, i32* %5, align 4
  %100 = load i32, i32* %4, align 4
  %101 = sub nsw i32 %100, 2
  %102 = icmp slt i32 %99, %101
  br i1 %102, label %103, label %113

103:                                              ; preds = %98
  %104 = load i32, i32* %5, align 4
  %105 = sext i32 %104 to i64
  %106 = getelementptr inbounds [20 x i8], [20 x i8]* %6, i64 0, i64 %105
  %107 = load i8, i8* %106, align 1
  %108 = sext i8 %107 to i32
  %109 = call i32 (i8*, ...) @printf(i8* getelementptr inbounds ([3 x i8], [3 x i8]* @.str.1, i64 0, i64 0), i32 %108)
  br label %110

110:                                              ; preds = %103
  %111 = load i32, i32* %5, align 4
  %112 = add nsw i32 %111, 1
  store i32 %112, i32* %5, align 4
  br label %98

113:                                              ; preds = %98
  %114 = call i32 (i8*, ...) @printf(i8* getelementptr inbounds ([2 x i8], [2 x i8]* @.str.2, i64 0, i64 0))
  br label %132

115:                                              ; preds = %89
  store i32 0, i32* %5, align 4
  br label %116

116:                                              ; preds = %127, %115
  %117 = load i32, i32* %5, align 4
  %118 = load i32, i32* %4, align 4
  %119 = icmp slt i32 %117, %118
  br i1 %119, label %120, label %130

120:                                              ; preds = %116
  %121 = load i32, i32* %5, align 4
  %122 = sext i32 %121 to i64
  %123 = getelementptr inbounds [20 x i8], [20 x i8]* %6, i64 0, i64 %122
  %124 = load i8, i8* %123, align 1
  %125 = sext i8 %124 to i32
  %126 = call i32 (i8*, ...) @printf(i8* getelementptr inbounds ([3 x i8], [3 x i8]* @.str.1, i64 0, i64 0), i32 %125)
  br label %127

127:                                              ; preds = %120
  %128 = load i32, i32* %5, align 4
  %129 = add nsw i32 %128, 1
  store i32 %129, i32* %5, align 4
  br label %116

130:                                              ; preds = %116
  %131 = call i32 (i8*, ...) @printf(i8* getelementptr inbounds ([2 x i8], [2 x i8]* @.str.2, i64 0, i64 0))
  br label %132

132:                                              ; preds = %130, %113
  br label %229

133:                                              ; preds = %81
  %134 = load i32, i32* %4, align 4
  %135 = sub nsw i32 %134, 1
  %136 = sext i32 %135 to i64
  %137 = getelementptr inbounds [20 x i8], [20 x i8]* %6, i64 0, i64 %136
  %138 = load i8, i8* %137, align 1
  %139 = sext i8 %138 to i32
  %140 = icmp eq i32 %139, 103
  br i1 %140, label %141, label %211

141:                                              ; preds = %133
  %142 = load i32, i32* %4, align 4
  %143 = sub nsw i32 %142, 2
  %144 = sext i32 %143 to i64
  %145 = getelementptr inbounds [20 x i8], [20 x i8]* %6, i64 0, i64 %144
  %146 = load i8, i8* %145, align 1
  %147 = sext i8 %146 to i32
  %148 = icmp eq i32 %147, 110
  br i1 %148, label %149, label %193

149:                                              ; preds = %141
  %150 = load i32, i32* %4, align 4
  %151 = sub nsw i32 %150, 3
  %152 = sext i32 %151 to i64
  %153 = getelementptr inbounds [20 x i8], [20 x i8]* %6, i64 0, i64 %152
  %154 = load i8, i8* %153, align 1
  %155 = sext i8 %154 to i32
  %156 = icmp eq i32 %155, 105
  br i1 %156, label %157, label %175

157:                                              ; preds = %149
  store i32 0, i32* %5, align 4
  br label %158

158:                                              ; preds = %170, %157
  %159 = load i32, i32* %5, align 4
  %160 = load i32, i32* %4, align 4
  %161 = sub nsw i32 %160, 3
  %162 = icmp slt i32 %159, %161
  br i1 %162, label %163, label %173

163:                                              ; preds = %158
  %164 = load i32, i32* %5, align 4
  %165 = sext i32 %164 to i64
  %166 = getelementptr inbounds [20 x i8], [20 x i8]* %6, i64 0, i64 %165
  %167 = load i8, i8* %166, align 1
  %168 = sext i8 %167 to i32
  %169 = call i32 (i8*, ...) @printf(i8* getelementptr inbounds ([3 x i8], [3 x i8]* @.str.1, i64 0, i64 0), i32 %168)
  br label %170

170:                                              ; preds = %163
  %171 = load i32, i32* %5, align 4
  %172 = add nsw i32 %171, 1
  store i32 %172, i32* %5, align 4
  br label %158

173:                                              ; preds = %158
  %174 = call i32 (i8*, ...) @printf(i8* getelementptr inbounds ([2 x i8], [2 x i8]* @.str.2, i64 0, i64 0))
  br label %192

175:                                              ; preds = %149
  store i32 0, i32* %5, align 4
  br label %176

176:                                              ; preds = %187, %175
  %177 = load i32, i32* %5, align 4
  %178 = load i32, i32* %4, align 4
  %179 = icmp slt i32 %177, %178
  br i1 %179, label %180, label %190

180:                                              ; preds = %176
  %181 = load i32, i32* %5, align 4
  %182 = sext i32 %181 to i64
  %183 = getelementptr inbounds [20 x i8], [20 x i8]* %6, i64 0, i64 %182
  %184 = load i8, i8* %183, align 1
  %185 = sext i8 %184 to i32
  %186 = call i32 (i8*, ...) @printf(i8* getelementptr inbounds ([3 x i8], [3 x i8]* @.str.1, i64 0, i64 0), i32 %185)
  br label %187

187:                                              ; preds = %180
  %188 = load i32, i32* %5, align 4
  %189 = add nsw i32 %188, 1
  store i32 %189, i32* %5, align 4
  br label %176

190:                                              ; preds = %176
  %191 = call i32 (i8*, ...) @printf(i8* getelementptr inbounds ([2 x i8], [2 x i8]* @.str.2, i64 0, i64 0))
  br label %192

192:                                              ; preds = %190, %173
  br label %210

193:                                              ; preds = %141
  store i32 0, i32* %5, align 4
  br label %194

194:                                              ; preds = %205, %193
  %195 = load i32, i32* %5, align 4
  %196 = load i32, i32* %4, align 4
  %197 = icmp slt i32 %195, %196
  br i1 %197, label %198, label %208

198:                                              ; preds = %194
  %199 = load i32, i32* %5, align 4
  %200 = sext i32 %199 to i64
  %201 = getelementptr inbounds [20 x i8], [20 x i8]* %6, i64 0, i64 %200
  %202 = load i8, i8* %201, align 1
  %203 = sext i8 %202 to i32
  %204 = call i32 (i8*, ...) @printf(i8* getelementptr inbounds ([3 x i8], [3 x i8]* @.str.1, i64 0, i64 0), i32 %203)
  br label %205

205:                                              ; preds = %198
  %206 = load i32, i32* %5, align 4
  %207 = add nsw i32 %206, 1
  store i32 %207, i32* %5, align 4
  br label %194

208:                                              ; preds = %194
  %209 = call i32 (i8*, ...) @printf(i8* getelementptr inbounds ([2 x i8], [2 x i8]* @.str.2, i64 0, i64 0))
  br label %210

210:                                              ; preds = %208, %192
  br label %228

211:                                              ; preds = %133
  store i32 0, i32* %5, align 4
  br label %212

212:                                              ; preds = %223, %211
  %213 = load i32, i32* %5, align 4
  %214 = load i32, i32* %4, align 4
  %215 = icmp slt i32 %213, %214
  br i1 %215, label %216, label %226

216:                                              ; preds = %212
  %217 = load i32, i32* %5, align 4
  %218 = sext i32 %217 to i64
  %219 = getelementptr inbounds [20 x i8], [20 x i8]* %6, i64 0, i64 %218
  %220 = load i8, i8* %219, align 1
  %221 = sext i8 %220 to i32
  %222 = call i32 (i8*, ...) @printf(i8* getelementptr inbounds ([3 x i8], [3 x i8]* @.str.1, i64 0, i64 0), i32 %221)
  br label %223

223:                                              ; preds = %216
  %224 = load i32, i32* %5, align 4
  %225 = add nsw i32 %224, 1
  store i32 %225, i32* %5, align 4
  br label %212

226:                                              ; preds = %212
  %227 = call i32 (i8*, ...) @printf(i8* getelementptr inbounds ([2 x i8], [2 x i8]* @.str.2, i64 0, i64 0))
  br label %228

228:                                              ; preds = %226, %210
  br label %229

229:                                              ; preds = %228, %132
  br label %230

230:                                              ; preds = %229, %80
  br label %231

231:                                              ; preds = %230
  %232 = load i32, i32* %3, align 4
  %233 = add nsw i32 %232, 1
  store i32 %233, i32* %3, align 4
  br label %8

234:                                              ; preds = %8
  ret i32 0
}

declare dso_local i32 @__isoc99_scanf(i8*, ...) #1

declare dso_local i32 @printf(i8*, ...) #1


!llvm.module.flags = !{!0}
!llvm.ident = !{!1}

!0 = !{i32 1, !"wchar_size", i32 4}
!1 = !{!"clang version 10.0.0-4ubuntu1 "}
